target datalayout = "e-m:e-p270:32:32-p271:32:32-p272:64:64-i64:64-i128:128-f80:128-n8:16:32:64-S128"
target triple = "x86_64-pc-linux-gnu"

%struct.magic_set = type { [2 x ptr], %struct.cont, %struct.out, i32, i32, i32, i32, i32, ptr, i64, i32, %struct.anon, %union.VALUETYPE, i16, i16, i16, i16, i16, i16, i64, i64, i64 }
%struct.cont = type { i64, ptr }
%struct.out = type { ptr, i64, ptr }
%struct.anon = type { ptr, i64, i64, i64 }
%union.VALUETYPE = type { [2 x i64], [112 x i8] }

@.str = private unnamed_addr constant [27 x i8] c"Magic database is not open\00", align 1

; Function Attrs: nounwind uwtable
define hidden ptr @magic_error(ptr noundef %0) #0 {
  %2 = alloca ptr, align 8
  %3 = alloca ptr, align 8
  store ptr %0, ptr %3, align 8
  %4 = load ptr, ptr %3, align 8
  %5 = icmp eq ptr %4, null
  br i1 %5, label %6, label %7

6:                                                ; preds = %1
  store ptr @.str, ptr %2, align 8
  br label %21

7:                                                ; preds = %1
  %8 = load ptr, ptr %3, align 8
  %9 = getelementptr inbounds %struct.magic_set, ptr %8, i32 0, i32 7
  %10 = load i32, ptr %9, align 8
  %11 = and i32 %10, 1
  %12 = icmp ne i32 %11, 0
  br i1 %12, label %13, label %18

13:                                               ; preds = %7
  %14 = load ptr, ptr %3, align 8
  %15 = getelementptr inbounds %struct.magic_set, ptr %14, i32 0, i32 2
  %16 = getelementptr inbounds %struct.out, ptr %15, i32 0, i32 0
  %17 = load ptr, ptr %16, align 8
  br label %19

18:                                               ; preds = %7
  br label %19

19:                                               ; preds = %18, %13
  %20 = phi ptr [ %17, %13 ], [ null, %18 ]
  store ptr %20, ptr %2, align 8
  br label %21

21:                                               ; preds = %19, %6
  %22 = load ptr, ptr %2, align 8
  ret ptr %22
}